target datalayout = "e-m:e-p270:32:32-p271:32:32-p272:64:64-i64:64-i128:128-f80:128-n8:16:32:64-S128"
target triple = "x86_64-pc-linux-gnu"

%struct._zend_llist = type { ptr, ptr, i64, i64, ptr, i8, ptr }
%struct._zend_compiler_globals = type { %struct._zend_stack, ptr, ptr, i32, ptr, ptr, ptr, ptr, i8, i8, i8, i8, i8, %struct._zend_llist, ptr, i8, i8, i8, i8, ptr, i32, i32, %struct._zend_oparray_context, %struct._zend_file_context, ptr, %struct._zend_array, ptr, i64, i8, i8, i8, ptr, ptr, %struct._zend_stack, ptr, i32, ptr, ptr, i64, i64, ptr, ptr, ptr, ptr, i32, ptr, i32, %struct._zend_stack }
%struct._zend_oparray_context = type { ptr, ptr, i32, i32, i32, i32, i32, i32, i32, ptr, ptr, ptr, i32, i8 }
%struct._zend_file_context = type { %struct._zend_declarables, ptr, i8, i8, ptr, ptr, ptr, %struct._zend_array }
%struct._zend_declarables = type { i64 }
%struct._zend_array = type { %struct._zend_refcounted_h, %union.anon.6, i32, %union.anon.8, i32, i32, i32, i32, i64, ptr }
%struct._zend_refcounted_h = type { i32, %union.anon.5 }
%union.anon.5 = type { i32 }
%union.anon.6 = type { i32 }
%union.anon.8 = type { ptr }
%struct._zend_stack = type { i32, i32, i32, ptr }
%struct._zval_struct = type { %union._zend_value, %union.anon, %union.anon.2 }
%union._zend_value = type { i64 }
%union.anon = type { i32 }
%union.anon.2 = type { i32 }
%struct.zend_type = type { ptr, i32 }
%struct._zend_class_entry = type { i8, ptr, %union.anon.4, i32, i32, i32, i32, ptr, ptr, ptr, %struct._zend_array, %struct._zend_array, %struct._zend_array, ptr, ptr, ptr, ptr, ptr, ptr, ptr, ptr, ptr, ptr, ptr, ptr, ptr, ptr, ptr, ptr, ptr, ptr, ptr, %union.anon.9, ptr, ptr, ptr, ptr, i32, i32, i32, i32, %union.anon.10, ptr, ptr, ptr, ptr, i32, ptr, ptr, %union.anon.11 }
%union.anon.4 = type { ptr }
%union.anon.9 = type { ptr }
%union.anon.10 = type { ptr }
%union.anon.11 = type { %struct.anon.12 }
%struct.anon.12 = type { ptr, i32, i32 }
%struct.anon.0 = type { i8, i8, %union.anon.1 }
%union.anon.1 = type { i16 }
%struct._zend_refcounted = type { %struct._zend_refcounted_h }
%struct._zend_class_mutable_data = type { ptr, ptr, i32, ptr }
%struct._Bucket = type { %struct._zval_struct, i64, ptr }
%struct._zend_class_constant = type { %struct._zval_struct, ptr, ptr, ptr, %struct.zend_type }

@compiler_globals = external global %struct._zend_compiler_globals, align 8

; Function Attrs: alwaysinline nounwind uwtable
define internal i32 @zend_gc_delref(ptr noundef %0) #4 {
  %2 = alloca ptr, align 8
  store ptr %0, ptr %2, align 8, !tbaa !216
  %3 = load ptr, ptr %2, align 8, !tbaa !216
  %4 = getelementptr inbounds nuw %struct._zend_refcounted_h, ptr %3, i32 0, i32 0
  %5 = load i32, ptr %4, align 4, !tbaa !218
  %6 = icmp ugt i32 %5, 0
  call void @llvm.assume(i1 %6)
  br label %7

7:                                                ; preds = %1
  br label %8

8:                                                ; preds = %7
  %9 = load ptr, ptr %2, align 8, !tbaa !216
  %10 = getelementptr inbounds nuw %struct._zend_refcounted_h, ptr %9, i32 0, i32 0
  %11 = load i32, ptr %10, align 4, !tbaa !218
  %12 = add i32 %11, -1
  store i32 %12, ptr %10, align 4, !tbaa !218
  ret i32 %12
}

; Function Attrs: alwaysinline nounwind uwtable
define internal i32 @zval_gc_flags(i32 noundef %0) #4 {
  %2 = alloca i32, align 4
  store i32 %0, ptr %2, align 4, !tbaa !10
  %3 = load i32, ptr %2, align 4, !tbaa !10
  %4 = lshr i32 %3, 0
  %5 = and i32 %4, 1008
  ret i32 %5
}

; Function Attrs: alwaysinline nounwind uwtable
define internal i32 @zval_delref_p(ptr noundef %0) #4 {
  %2 = alloca ptr, align 8
  store ptr %0, ptr %2, align 8, !tbaa !63
  %3 = load ptr, ptr %2, align 8, !tbaa !63
  %4 = getelementptr inbounds nuw %struct._zval_struct, ptr %3, i32 0, i32 1
  %5 = getelementptr inbounds nuw %struct.anon.0, ptr %4, i32 0, i32 1
  %6 = load i8, ptr %5, align 1, !tbaa !9
  %7 = zext i8 %6 to i32
  %8 = icmp ne i32 %7, 0
  call void @llvm.assume(i1 %8)
  %9 = load ptr, ptr %2, align 8, !tbaa !63
  %10 = getelementptr inbounds nuw %struct._zval_struct, ptr %9, i32 0, i32 0
  %11 = load ptr, ptr %10, align 8, !tbaa !9
  %12 = getelementptr inbounds nuw %struct._zend_refcounted, ptr %11, i32 0, i32 0
  %13 = call i32 @zend_gc_delref(ptr noundef %12)
  ret i32 %13
}

; Function Attrs: alwaysinline nounwind uwtable
define internal void @zend_hash_release(ptr noundef %0) #4 {
  %2 = alloca ptr, align 8
  store ptr %0, ptr %2, align 8, !tbaa !86
  %3 = load ptr, ptr %2, align 8, !tbaa !86
  %4 = getelementptr inbounds nuw %struct._zend_array, ptr %3, i32 0, i32 0
  %5 = getelementptr inbounds nuw %struct._zend_refcounted_h, ptr %4, i32 0, i32 1
  %6 = load i32, ptr %5, align 4, !tbaa !9
  %7 = call i32 @zval_gc_flags(i32 noundef %6)
  %8 = and i32 %7, 64
  %9 = icmp ne i32 %8, 0
  br i1 %9, label %30, label %10

10:                                               ; preds = %1
  %11 = load ptr, ptr %2, align 8, !tbaa !86
  %12 = getelementptr inbounds nuw %struct._zend_array, ptr %11, i32 0, i32 0
  %13 = call i32 @zend_gc_delref(ptr noundef %12)
  %14 = icmp eq i32 %13, 0
  br i1 %14, label %15, label %29

15:                                               ; preds = %10
  %16 = load ptr, ptr %2, align 8, !tbaa !86
  call void @zend_hash_destroy(ptr noundef %16)
  %17 = load ptr, ptr %2, align 8, !tbaa !86
  %18 = getelementptr inbounds nuw %struct._zend_array, ptr %17, i32 0, i32 0
  %19 = getelementptr inbounds nuw %struct._zend_refcounted_h, ptr %18, i32 0, i32 1
  %20 = load i32, ptr %19, align 4, !tbaa !9
  %21 = call i32 @zval_gc_flags(i32 noundef %20)
  %22 = and i32 %21, 128
  %23 = icmp ne i32 %22, 0
  br i1 %23, label %24, label %26

24:                                               ; preds = %15
  %25 = load ptr, ptr %2, align 8, !tbaa !86
  call void @free(ptr noundef %25) #14
  br label %28

26:                                               ; preds = %15
  %27 = load ptr, ptr %2, align 8, !tbaa !86
  call void @_efree(ptr noundef %27)
  br label %28

28:                                               ; preds = %26, %24
  br label %29

29:                                               ; preds = %28, %10
  br label %30

30:                                               ; preds = %29, %1
  ret void
}

; Function Attrs: alwaysinline nounwind uwtable
define internal void @zval_ptr_dtor_nogc(ptr noundef %0) #4 {
  %2 = alloca ptr, align 8
  store ptr %0, ptr %2, align 8, !tbaa !63
  %3 = load ptr, ptr %2, align 8, !tbaa !63
  %4 = getelementptr inbounds nuw %struct._zval_struct, ptr %3, i32 0, i32 1
  %5 = getelementptr inbounds nuw %struct.anon.0, ptr %4, i32 0, i32 1
  %6 = load i8, ptr %5, align 1, !tbaa !9
  %7 = zext i8 %6 to i32
  %8 = icmp ne i32 %7, 0
  br i1 %8, label %9, label %17

9:                                                ; preds = %1
  %10 = load ptr, ptr %2, align 8, !tbaa !63
  %11 = call i32 @zval_delref_p(ptr noundef %10)
  %12 = icmp ne i32 %11, 0
  br i1 %12, label %17, label %13

13:                                               ; preds = %9
  %14 = load ptr, ptr %2, align 8, !tbaa !63
  %15 = getelementptr inbounds nuw %struct._zval_struct, ptr %14, i32 0, i32 0
  %16 = load ptr, ptr %15, align 8, !tbaa !9
  call void @rc_dtor_func(ptr noundef %16)
  br label %17

17:                                               ; preds = %13, %9, %1
  ret void
}

; Function Attrs: alwaysinline nounwind uwtable
define internal zeroext i8 @zval_get_type(ptr noundef %0) #4 {
  %2 = alloca ptr, align 8
  store ptr %0, ptr %2, align 8, !tbaa !63
  %3 = load ptr, ptr %2, align 8, !tbaa !63
  %4 = getelementptr inbounds nuw %struct._zval_struct, ptr %3, i32 0, i32 1
  %5 = getelementptr inbounds nuw %struct.anon.0, ptr %4, i32 0, i32 0
  %6 = load i8, ptr %5, align 8, !tbaa !9
  ret i8 %6
}

; Function Attrs: nounwind uwtable
define dso_local void @zend_cleanup_mutable_class_data(ptr noundef %0) #0 {
  %2 = alloca ptr, align 8
  %3 = alloca ptr, align 8
  %4 = alloca ptr, align 8
  %5 = alloca ptr, align 8
  %6 = alloca ptr, align 8
  %7 = alloca ptr, align 8
  %8 = alloca ptr, align 8
  %9 = alloca ptr, align 8
  %10 = alloca ptr, align 8
  %11 = alloca i32, align 4
  %12 = alloca ptr, align 8
  %13 = alloca ptr, align 8
  store ptr %0, ptr %2, align 8, !tbaa !87
  call void @llvm.lifetime.start.p0(i64 8, ptr %3) #14
  %14 = load ptr, ptr getelementptr inbounds nuw (%struct._zend_compiler_globals, ptr @compiler_globals, i32 0, i32 37), align 8, !tbaa !102
  %15 = load ptr, ptr %2, align 8, !tbaa !87
  %16 = getelementptr inbounds nuw %struct._zend_class_entry, ptr %15, i32 0, i32 13
  %17 = load ptr, ptr %16, align 8, !tbaa !127
  %18 = ptrtoint ptr %17 to i64
  %19 = getelementptr inbounds i8, ptr %14, i64 %18
  %20 = load ptr, ptr %19, align 8, !tbaa !69
  store ptr %20, ptr %3, align 8, !tbaa !128
  %21 = load ptr, ptr %3, align 8, !tbaa !128
  %22 = icmp ne ptr %21, null
  br i1 %22, label %23, label %157

23:                                               ; preds = %1
  call void @llvm.lifetime.start.p0(i64 8, ptr %4) #14
  call void @llvm.lifetime.start.p0(i64 8, ptr %5) #14
  %24 = load ptr, ptr %3, align 8, !tbaa !128
  %25 = getelementptr inbounds nuw %struct._zend_class_mutable_data, ptr %24, i32 0, i32 1
  %26 = load ptr, ptr %25, align 8, !tbaa !129
  store ptr %26, ptr %4, align 8, !tbaa !86
  %27 = load ptr, ptr %4, align 8, !tbaa !86
  %28 = icmp ne ptr %27, null
  br i1 %28, label %29, label %105

29:                                               ; preds = %23
  %30 = load ptr, ptr %4, align 8, !tbaa !86
  %31 = load ptr, ptr %2, align 8, !tbaa !87
  %32 = getelementptr inbounds nuw %struct._zend_class_entry, ptr %31, i32 0, i32 12
  %33 = icmp ne ptr %30, %32
  br i1 %33, label %34, label %105

34:                                               ; preds = %29
  call void @llvm.lifetime.start.p0(i64 8, ptr %6) #14
  br label %35

35:                                               ; preds = %34
  call void @llvm.lifetime.start.p0(i64 8, ptr %7) #14
  %36 = load ptr, ptr %4, align 8, !tbaa !86
  store ptr %36, ptr %7, align 8, !tbaa !86
  call void @llvm.lifetime.start.p0(i64 8, ptr %8) #14
  %37 = load ptr, ptr %7, align 8, !tbaa !86
  %38 = getelementptr inbounds nuw %struct._zend_array, ptr %37, i32 0, i32 3
  %39 = load ptr, ptr %38, align 8, !tbaa !9
  %40 = getelementptr inbounds %struct._Bucket, ptr %39, i64 0
  store ptr %40, ptr %8, align 8, !tbaa !131
  call void @llvm.lifetime.start.p0(i64 8, ptr %9) #14
  %41 = load ptr, ptr %7, align 8, !tbaa !86
  %42 = getelementptr inbounds nuw %struct._zend_array, ptr %41, i32 0, i32 3
  %43 = load ptr, ptr %42, align 8, !tbaa !9
  %44 = load ptr, ptr %7, align 8, !tbaa !86
  %45 = getelementptr inbounds nuw %struct._zend_array, ptr %44, i32 0, i32 4
  %46 = load i32, ptr %45, align 8, !tbaa !133
  %47 = zext i32 %46 to i64
  %48 = getelementptr inbounds nuw %struct._Bucket, ptr %43, i64 %47
  store ptr %48, ptr %9, align 8, !tbaa !131
  %49 = load ptr, ptr %7, align 8, !tbaa !86
  %50 = getelementptr inbounds nuw %struct._zend_array, ptr %49, i32 0, i32 1
  %51 = load i32, ptr %50, align 8, !tbaa !9
  %52 = and i32 %51, 4
  %53 = icmp ne i32 %52, 0
  %54 = xor i1 %53, true
  call void @llvm.assume(i1 %54)
  br label %55

55:                                               ; preds = %96, %35
  %56 = load ptr, ptr %8, align 8, !tbaa !131
  %57 = load ptr, ptr %9, align 8, !tbaa !131
  %58 = icmp ne ptr %56, %57
  br i1 %58, label %59, label %99

59:                                               ; preds = %55
  call void @llvm.lifetime.start.p0(i64 8, ptr %10) #14
  %60 = load ptr, ptr %8, align 8, !tbaa !131
  %61 = getelementptr inbounds nuw %struct._Bucket, ptr %60, i32 0, i32 0
  store ptr %61, ptr %10, align 8, !tbaa !63
  %62 = load ptr, ptr %10, align 8, !tbaa !63
  %63 = call zeroext i8 @zval_get_type(ptr noundef %62)
  %64 = zext i8 %63 to i32
  %65 = icmp eq i32 %64, 0
  %66 = xor i1 %65, true
  %67 = xor i1 %66, true
  %68 = zext i1 %67 to i32
  %69 = sext i32 %68 to i64
  %70 = call i64 @llvm.expect.i64(i64 %69, i64 0)
  %71 = icmp ne i64 %70, 0
  br i1 %71, label %72, label %73

72:                                               ; preds = %59
  store i32 6, ptr %11, align 4
  br label %93

73:                                               ; preds = %59
  %74 = load ptr, ptr %10, align 8, !tbaa !63
  %75 = getelementptr inbounds nuw %struct._zval_struct, ptr %74, i32 0, i32 0
  %76 = load ptr, ptr %75, align 8, !tbaa !9
  store ptr %76, ptr %6, align 8, !tbaa !134
  %77 = load ptr, ptr %6, align 8, !tbaa !134
  %78 = getelementptr inbounds nuw %struct._zend_class_constant, ptr %77, i32 0, i32 3
  %79 = load ptr, ptr %78, align 8, !tbaa !136
  %80 = load ptr, ptr %2, align 8, !tbaa !87
  %81 = icmp eq ptr %79, %80
  br i1 %81, label %89, label %82

82:                                               ; preds = %73
  %83 = load ptr, ptr %6, align 8, !tbaa !134
  %84 = getelementptr inbounds nuw %struct._zend_class_constant, ptr %83, i32 0, i32 0
  %85 = getelementptr inbounds nuw %struct._zval_struct, ptr %84, i32 0, i32 2
  %86 = load i32, ptr %85, align 4, !tbaa !9
  %87 = and i32 %86, 8
  %88 = icmp ne i32 %87, 0
  br i1 %88, label %89, label %92

89:                                               ; preds = %82, %73
  %90 = load ptr, ptr %6, align 8, !tbaa !134
  %91 = getelementptr inbounds nuw %struct._zend_class_constant, ptr %90, i32 0, i32 0
  call void @zval_ptr_dtor_nogc(ptr noundef %91)
  br label %92

92:                                               ; preds = %89, %82
  store i32 0, ptr %11, align 4
  br label %93

93:                                               ; preds = %92, %72
  call void @llvm.lifetime.end.p0(i64 8, ptr %10) #14
  %94 = load i32, ptr %11, align 4
  switch i32 %94, label %158 [
    i32 0, label %95
    i32 6, label %96
  ]

95:                                               ; preds = %93
  br label %96

96:                                               ; preds = %95, %93
  %97 = load ptr, ptr %8, align 8, !tbaa !131
  %98 = getelementptr inbounds nuw %struct._Bucket, ptr %97, i32 1
  store ptr %98, ptr %8, align 8, !tbaa !131
  br label %55

99:                                               ; preds = %55
  call void @llvm.lifetime.end.p0(i64 8, ptr %9) #14
  call void @llvm.lifetime.end.p0(i64 8, ptr %8) #14
  call void @llvm.lifetime.end.p0(i64 8, ptr %7) #14
  br label %100

100:                                              ; preds = %99
  br label %101

101:                                              ; preds = %100
  %102 = load ptr, ptr %4, align 8, !tbaa !86
  call void @zend_hash_destroy(ptr noundef %102)
  %103 = load ptr, ptr %3, align 8, !tbaa !128
  %104 = getelementptr inbounds nuw %struct._zend_class_mutable_data, ptr %103, i32 0, i32 1
  store ptr null, ptr %104, align 8, !tbaa !129
  call void @llvm.lifetime.end.p0(i64 8, ptr %6) #14
  br label %105

105:                                              ; preds = %101, %29, %23
  %106 = load ptr, ptr %3, align 8, !tbaa !128
  %107 = getelementptr inbounds nuw %struct._zend_class_mutable_data, ptr %106, i32 0, i32 0
  %108 = load ptr, ptr %107, align 8, !tbaa !139
  store ptr %108, ptr %5, align 8, !tbaa !63
  %109 = load ptr, ptr %5, align 8, !tbaa !63
  %110 = icmp ne ptr %109, null
  br i1 %110, label %111, label %135

111:                                              ; preds = %105
  %112 = load ptr, ptr %5, align 8, !tbaa !63
  %113 = load ptr, ptr %2, align 8, !tbaa !87
  %114 = getelementptr inbounds nuw %struct._zend_class_entry, ptr %113, i32 0, i32 7
  %115 = load ptr, ptr %114, align 8, !tbaa !140
  %116 = icmp ne ptr %112, %115
  br i1 %116, label %117, label %135

117:                                              ; preds = %111
  call void @llvm.lifetime.start.p0(i64 8, ptr %12) #14
  %118 = load ptr, ptr %5, align 8, !tbaa !63
  %119 = load ptr, ptr %2, align 8, !tbaa !87
  %120 = getelementptr inbounds nuw %struct._zend_class_entry, ptr %119, i32 0, i32 5
  %121 = load i32, ptr %120, align 8, !tbaa !141
  %122 = sext i32 %121 to i64
  %123 = getelementptr inbounds %struct._zval_struct, ptr %118, i64 %122
  store ptr %123, ptr %12, align 8, !tbaa !63
  br label %124

124:                                              ; preds = %128, %117
  %125 = load ptr, ptr %5, align 8, !tbaa !63
  %126 = load ptr, ptr %12, align 8, !tbaa !63
  %127 = icmp ult ptr %125, %126
  br i1 %127, label %128, label %132

128:                                              ; preds = %124
  %129 = load ptr, ptr %5, align 8, !tbaa !63
  call void @zval_ptr_dtor_nogc(ptr noundef %129)
  %130 = load ptr, ptr %5, align 8, !tbaa !63
  %131 = getelementptr inbounds nuw %struct._zval_struct, ptr %130, i32 1
  store ptr %131, ptr %5, align 8, !tbaa !63
  br label %124

132:                                              ; preds = %124
  %133 = load ptr, ptr %3, align 8, !tbaa !128
  %134 = getelementptr inbounds nuw %struct._zend_class_mutable_data, ptr %133, i32 0, i32 0
  store ptr null, ptr %134, align 8, !tbaa !139
  call void @llvm.lifetime.end.p0(i64 8, ptr %12) #14
  br label %135

135:                                              ; preds = %132, %111, %105
  %136 = load ptr, ptr %3, align 8, !tbaa !128
  %137 = getelementptr inbounds nuw %struct._zend_class_mutable_data, ptr %136, i32 0, i32 3
  %138 = load ptr, ptr %137, align 8, !tbaa !142
  %139 = icmp ne ptr %138, null
  br i1 %139, label %140, label %146

140:                                              ; preds = %135
  %141 = load ptr, ptr %3, align 8, !tbaa !128
  %142 = getelementptr inbounds nuw %struct._zend_class_mutable_data, ptr %141, i32 0, i32 3
  %143 = load ptr, ptr %142, align 8, !tbaa !142
  call void @zend_hash_release(ptr noundef %143)
  %144 = load ptr, ptr %3, align 8, !tbaa !128
  %145 = getelementptr inbounds nuw %struct._zend_class_mutable_data, ptr %144, i32 0, i32 3
  store ptr null, ptr %145, align 8, !tbaa !142
  br label %146

146:                                              ; preds = %140, %135
  br label %147

147:                                              ; preds = %146
  call void @llvm.lifetime.start.p0(i64 8, ptr %13) #14
  %148 = load ptr, ptr getelementptr inbounds nuw (%struct._zend_compiler_globals, ptr @compiler_globals, i32 0, i32 37), align 8, !tbaa !102
  %149 = load ptr, ptr %2, align 8, !tbaa !87
  %150 = getelementptr inbounds nuw %struct._zend_class_entry, ptr %149, i32 0, i32 13
  %151 = load ptr, ptr %150, align 8, !tbaa !127
  %152 = ptrtoint ptr %151 to i64
  %153 = getelementptr inbounds i8, ptr %148, i64 %152
  store ptr %153, ptr %13, align 8, !tbaa !69
  %154 = load ptr, ptr %13, align 8, !tbaa !69
  store ptr null, ptr %154, align 8, !tbaa !69
  call void @llvm.lifetime.end.p0(i64 8, ptr %13) #14
  br label %155

155:                                              ; preds = %147
  br label %156

156:                                              ; preds = %155
  call void @llvm.lifetime.end.p0(i64 8, ptr %5) #14
  call void @llvm.lifetime.end.p0(i64 8, ptr %4) #14
  br label %157

157:                                              ; preds = %156, %1
  call void @llvm.lifetime.end.p0(i64 8, ptr %3) #14
  ret void

158:                                              ; preds = %93
  unreachable
}