; Function Attrs: nounwind uwtable
define dso_local void @zend_cleanup_mutable_class_data(ptr noundef readonly captures(address) %0) local_unnamed_addr #0 {
  %2 = load ptr, ptr getelementptr inbounds nuw (i8, ptr @compiler_globals, i64 512), align 8, !tbaa !81
  %3 = getelementptr inbounds nuw i8, ptr %0, i64 232
  %4 = load ptr, ptr %3, align 8, !tbaa !107
  %5 = ptrtoint ptr %4 to i64
  %6 = getelementptr inbounds i8, ptr %2, i64 %5
  %7 = load ptr, ptr %6, align 8, !tbaa !96
  %.not = icmp eq ptr %7, null
  br i1 %.not, label %89, label %8

8:                                                ; preds = %1
  %9 = getelementptr inbounds nuw i8, ptr %7, i64 8
  %10 = load ptr, ptr %9, align 8, !tbaa !108
  %.not44 = icmp eq ptr %10, null
  %11 = getelementptr inbounds nuw i8, ptr %0, i64 176
  %.not45 = icmp eq ptr %10, %11
  %or.cond = select i1 %.not44, i1 true, i1 %.not45
  br i1 %or.cond, label %45, label %12

12:                                               ; preds = %8
  %13 = getelementptr inbounds nuw i8, ptr %10, i64 16
  %14 = load ptr, ptr %13, align 8, !tbaa !23
  %15 = getelementptr inbounds nuw i8, ptr %10, i64 24
  %16 = load i32, ptr %15, align 8, !tbaa !110
  %17 = zext i32 %16 to i64
  %18 = getelementptr inbounds nuw %struct._Bucket, ptr %14, i64 %17
  %19 = getelementptr inbounds nuw i8, ptr %10, i64 8
  %20 = load i32, ptr %19, align 8, !tbaa !23
  %21 = and i32 %20, 4
  %.not46 = icmp eq i32 %21, 0
  tail call void @llvm.assume(i1 %.not46)
  %.not4756 = icmp eq i32 %16, 0
  br i1 %.not4756, label %._crit_edge, label %.lr.ph

.lr.ph:                                           ; preds = %12, %zval_ptr_dtor_nogc.exit
  %.03957 = phi ptr [ %44, %zval_ptr_dtor_nogc.exit ], [ %14, %12 ]
  %22 = getelementptr inbounds nuw i8, ptr %.03957, i64 8
  %23 = load i8, ptr %22, align 8, !tbaa !23
  %24 = icmp eq i8 %23, 0
  br i1 %24, label %zval_ptr_dtor_nogc.exit, label %25, !prof !98

25:                                               ; preds = %.lr.ph
  %26 = load ptr, ptr %.03957, align 8, !tbaa !23
  %27 = getelementptr inbounds nuw i8, ptr %26, i64 32
  %28 = load ptr, ptr %27, align 8, !tbaa !111
  %29 = icmp eq ptr %28, %0
  br i1 %29, label %34, label %30

30:                                               ; preds = %25
  %31 = getelementptr inbounds nuw i8, ptr %26, i64 12
  %32 = load i32, ptr %31, align 4, !tbaa !23
  %33 = and i32 %32, 8
  %.not51 = icmp eq i32 %33, 0
  br i1 %.not51, label %zval_ptr_dtor_nogc.exit, label %34

34:                                               ; preds = %30, %25
  %35 = getelementptr inbounds nuw i8, ptr %26, i64 9
  %36 = load i8, ptr %35, align 1, !tbaa !23
  %.not.i52 = icmp eq i8 %36, 0
  br i1 %.not.i52, label %zval_ptr_dtor_nogc.exit, label %37

37:                                               ; preds = %34
  %38 = load ptr, ptr %26, align 8, !tbaa !23
  %39 = load i32, ptr %38, align 4, !tbaa !32
  %40 = icmp ne i32 %39, 0
  tail call void @llvm.assume(i1 %40)
  %41 = add i32 %39, -1
  store i32 %41, ptr %38, align 4, !tbaa !32
  %.not3.i = icmp eq i32 %41, 0
  br i1 %.not3.i, label %42, label %zval_ptr_dtor_nogc.exit

42:                                               ; preds = %37
  %43 = load ptr, ptr %26, align 8, !tbaa !23
  tail call void @rc_dtor_func(ptr noundef %43) #14
  br label %zval_ptr_dtor_nogc.exit

zval_ptr_dtor_nogc.exit:                          ; preds = %42, %37, %34, %30, %.lr.ph
  %44 = getelementptr inbounds nuw i8, ptr %.03957, i64 32
  %.not47 = icmp eq ptr %44, %18
  br i1 %.not47, label %._crit_edge, label %.lr.ph

._crit_edge:                                      ; preds = %zval_ptr_dtor_nogc.exit, %12
  tail call void @zend_hash_destroy(ptr noundef nonnull %10) #14
  store ptr null, ptr %9, align 8, !tbaa !108
  br label %45

45:                                               ; preds = %._crit_edge, %8
  %46 = load ptr, ptr %7, align 8, !tbaa !114
  %.not48 = icmp eq ptr %46, null
  br i1 %.not48, label %67, label %47

47:                                               ; preds = %45
  %48 = getelementptr inbounds nuw i8, ptr %0, i64 40
  %49 = load ptr, ptr %48, align 8, !tbaa !115
  %.not49 = icmp eq ptr %46, %49
  br i1 %.not49, label %67, label %50

50:                                               ; preds = %47
  %51 = getelementptr inbounds nuw i8, ptr %0, i64 32
  %52 = load i32, ptr %51, align 8, !tbaa !116
  %53 = sext i32 %52 to i64
  %54 = getelementptr inbounds %struct._zval_struct, ptr %46, i64 %53
  %55 = icmp sgt i32 %52, 0
  br i1 %55, label %.lr.ph60, label %._crit_edge61

.lr.ph60:                                         ; preds = %50, %zval_ptr_dtor_nogc.exit55
  %.058 = phi ptr [ %65, %zval_ptr_dtor_nogc.exit55 ], [ %46, %50 ]
  %56 = getelementptr inbounds nuw i8, ptr %.058, i64 9
  %57 = load i8, ptr %56, align 1, !tbaa !23
  %.not.i53 = icmp eq i8 %57, 0
  br i1 %.not.i53, label %zval_ptr_dtor_nogc.exit55, label %58

58:                                               ; preds = %.lr.ph60
  %59 = load ptr, ptr %.058, align 8, !tbaa !23
  %60 = load i32, ptr %59, align 4, !tbaa !32
  %61 = icmp ne i32 %60, 0
  tail call void @llvm.assume(i1 %61)
  %62 = add i32 %60, -1
  store i32 %62, ptr %59, align 4, !tbaa !32
  %.not3.i54 = icmp eq i32 %62, 0
  br i1 %.not3.i54, label %63, label %zval_ptr_dtor_nogc.exit55

63:                                               ; preds = %58
  %64 = load ptr, ptr %.058, align 8, !tbaa !23
  tail call void @rc_dtor_func(ptr noundef %64) #14
  br label %zval_ptr_dtor_nogc.exit55

zval_ptr_dtor_nogc.exit55:                        ; preds = %.lr.ph60, %58, %63
  %65 = getelementptr inbounds nuw i8, ptr %.058, i64 16
  %66 = icmp ult ptr %65, %54
  br i1 %66, label %.lr.ph60, label %._crit_edge61

._crit_edge61:                                    ; preds = %zval_ptr_dtor_nogc.exit55, %50
  store ptr null, ptr %7, align 8, !tbaa !114
  br label %67

67:                                               ; preds = %._crit_edge61, %47, %45
  %68 = getelementptr inbounds nuw i8, ptr %7, i64 24
  %69 = load ptr, ptr %68, align 8, !tbaa !117
  %.not50 = icmp eq ptr %69, null
  br i1 %.not50, label %84, label %70

70:                                               ; preds = %67
  %71 = getelementptr inbounds nuw i8, ptr %69, i64 4
  %72 = load i32, ptr %71, align 4, !tbaa !23
  %73 = and i32 %72, 64
  %.not.i = icmp eq i32 %73, 0
  br i1 %.not.i, label %74, label %zend_hash_release.exit

74:                                               ; preds = %70
  %75 = load i32, ptr %69, align 4, !tbaa !32
  %76 = icmp ne i32 %75, 0
  tail call void @llvm.assume(i1 %76)
  %77 = add i32 %75, -1
  store i32 %77, ptr %69, align 4, !tbaa !32
  %78 = icmp eq i32 %77, 0
  br i1 %78, label %79, label %zend_hash_release.exit

79:                                               ; preds = %74
  tail call void @zend_hash_destroy(ptr noundef nonnull %69) #14
  %80 = load i32, ptr %71, align 4, !tbaa !23
  %81 = and i32 %80, 128
  %.not6.i = icmp eq i32 %81, 0
  br i1 %.not6.i, label %83, label %82

82:                                               ; preds = %79
  tail call void @free(ptr noundef nonnull %69) #14
  br label %zend_hash_release.exit

83:                                               ; preds = %79
  tail call void @_efree(ptr noundef nonnull %69) #14
  br label %zend_hash_release.exit

zend_hash_release.exit:                           ; preds = %70, %74, %82, %83
  store ptr null, ptr %68, align 8, !tbaa !117
  br label %84

84:                                               ; preds = %67, %zend_hash_release.exit
  %85 = load ptr, ptr getelementptr inbounds nuw (i8, ptr @compiler_globals, i64 512), align 8, !tbaa !81
  %86 = load ptr, ptr %3, align 8, !tbaa !107
  %87 = ptrtoint ptr %86 to i64
  %88 = getelementptr inbounds i8, ptr %85, i64 %87
  store ptr null, ptr %88, align 8, !tbaa !96
  br label %89

89:                                               ; preds = %84, %1
  ret void
}